; Function Attrs: nounwind sspstrong uwtable
define internal noundef i64 @sliceafter_i(i64 noundef %0, i64 noundef %1, i32 %2, ptr readnone captures(none) %3, i64 %4) #0 {
  %6 = tail call i64 @rb_ary_hidden_new_fill(i64 noundef 4) #14
  tail call void @rb_gc_writebarrier_unprotect(i64 noundef %6) #14
  %7 = inttoptr i64 %6 to ptr
  %8 = load i64, ptr %7, align 8, !tbaa !20
  %9 = and i64 %8, 8192
  %.not.i.i = icmp eq i64 %9, 0
  br i1 %.not.i.i, label %12, label %10

10:                                               ; preds = %5
  %11 = getelementptr inbounds nuw i8, ptr %7, i64 16
  br label %RARRAY_PTR.exit

12:                                               ; preds = %5
  %13 = getelementptr inbounds nuw i8, ptr %7, i64 32
  %14 = load ptr, ptr %13, align 8, !tbaa !22
  br label %RARRAY_PTR.exit

RARRAY_PTR.exit:                                  ; preds = %10, %12
  %.0.i.i = phi ptr [ %11, %10 ], [ %14, %12 ]
  %15 = load i64, ptr @id_sliceafter_enum, align 8, !tbaa !7
  %16 = tail call i64 @rb_ivar_get(i64 noundef %1, i64 noundef %15) #14
  %17 = load i64, ptr @id_sliceafter_pat, align 8, !tbaa !7
  %18 = tail call i64 @rb_ivar_get(i64 noundef %1, i64 noundef %17) #14
  store i64 %18, ptr %.0.i.i, align 8, !tbaa !134
  %19 = load i64, ptr @id_sliceafter_pred, align 8, !tbaa !7
  %20 = tail call i64 @rb_attr_get(i64 noundef %1, i64 noundef %19) #14
  %21 = getelementptr inbounds nuw i8, ptr %.0.i.i, i64 8
  store i64 %20, ptr %21, align 8, !tbaa !136
  %22 = getelementptr inbounds nuw i8, ptr %.0.i.i, i64 16
  store i64 4, ptr %22, align 8, !tbaa !137
  %23 = getelementptr inbounds nuw i8, ptr %.0.i.i, i64 24
  store i64 %0, ptr %23, align 8, !tbaa !138
  %24 = tail call i64 @rb_block_call(i64 noundef %16, i64 noundef 3073, i32 noundef 0, ptr noundef null, ptr noundef nonnull @sliceafter_ii, i64 noundef %6) #14
  tail call void @rb_gc_writebarrier_unprotect(i64 noundef %6) #14
  %25 = load i64, ptr %7, align 8, !tbaa !20
  %26 = and i64 %25, 8192
  %.not.i.i14 = icmp eq i64 %26, 0
  br i1 %.not.i.i14, label %29, label %27

27:                                               ; preds = %RARRAY_PTR.exit
  %28 = getelementptr inbounds nuw i8, ptr %7, i64 16
  br label %RARRAY_PTR.exit16

29:                                               ; preds = %RARRAY_PTR.exit
  %30 = getelementptr inbounds nuw i8, ptr %7, i64 32
  %31 = load ptr, ptr %30, align 8, !tbaa !22
  br label %RARRAY_PTR.exit16

RARRAY_PTR.exit16:                                ; preds = %27, %29
  %.0.i.i15 = phi ptr [ %28, %27 ], [ %31, %29 ]
  %32 = getelementptr inbounds nuw i8, ptr %.0.i.i15, i64 16
  %33 = load i64, ptr %32, align 8, !tbaa !137
  %34 = icmp eq i64 %33, 4
  br i1 %34, label %39, label %35

35:                                               ; preds = %RARRAY_PTR.exit16
  %36 = getelementptr inbounds nuw i8, ptr %.0.i.i15, i64 24
  %37 = load i64, ptr %36, align 8, !tbaa !138
  %38 = tail call i64 @rb_funcallv(i64 noundef %37, i64 noundef 136, i32 noundef 1, ptr noundef nonnull %32) #14
  br label %39

39:                                               ; preds = %35, %RARRAY_PTR.exit16
  ret i64 4
}